; ModuleID = 'source-C-CXX/24/29.cpp'
source_filename = "source-C-CXX/24/29.cpp"
target datalayout = "e-m:e-p270:32:32-p271:32:32-p272:64:64-i64:64-f80:128-n8:16:32:64-S128"
target triple = "x86_64-pc-linux-gnu"

%"class.std::ios_base::Init" = type { i8 }
%"class.std::basic_istream" = type { i32 (...)**, i64, %"class.std::basic_ios" }
%"class.std::basic_ios" = type { %"class.std::ios_base", %"class.std::basic_ostream"*, i8, i8, %"class.std::basic_streambuf"*, %"class.std::ctype"*, %"class.std::num_put"*, %"class.std::num_get"* }
%"class.std::ios_base" = type { i32 (...)**, i64, i64, i32, i32, i32, %"struct.std::ios_base::_Callback_list"*, %"struct.std::ios_base::_Words", [8 x %"struct.std::ios_base::_Words"], i32, %"struct.std::ios_base::_Words"*, %"class.std::locale" }
%"struct.std::ios_base::_Callback_list" = type { %"struct.std::ios_base::_Callback_list"*, void (i32, %"class.std::ios_base"*, i32)*, i32, i32 }
%"struct.std::ios_base::_Words" = type { i8*, i64 }
%"class.std::locale" = type { %"class.std::locale::_Impl"* }
%"class.std::locale::_Impl" = type { i32, %"class.std::locale::facet"**, i64, %"class.std::locale::facet"**, i8** }
%"class.std::locale::facet" = type <{ i32 (...)**, i32, [4 x i8] }>
%"class.std::basic_ostream" = type { i32 (...)**, %"class.std::basic_ios" }
%"class.std::basic_streambuf" = type { i32 (...)**, i8*, i8*, i8*, i8*, i8*, i8*, %"class.std::locale" }
%"class.std::ctype" = type <{ %"class.std::locale::facet.base", [4 x i8], %struct.__locale_struct*, i8, [7 x i8], i32*, i32*, i16*, i8, [256 x i8], [256 x i8], i8, [6 x i8] }>
%"class.std::locale::facet.base" = type <{ i32 (...)**, i32 }>
%struct.__locale_struct = type { [13 x %struct.__locale_data*], i16*, i32*, i32*, [13 x i8*] }
%struct.__locale_data = type opaque
%"class.std::num_put" = type { %"class.std::locale::facet.base", [4 x i8] }
%"class.std::num_get" = type { %"class.std::locale::facet.base", [4 x i8] }

@_ZStL8__ioinit = internal global %"class.std::ios_base::Init" zeroinitializer, align 1
@__dso_handle = external hidden global i8
@_ZSt3cin = external global %"class.std::basic_istream", align 8
@_ZSt4cout = external global %"class.std::basic_ostream", align 8
@llvm.global_ctors = appending global [1 x { i32, void ()*, i8* }] [{ i32, void ()*, i8* } { i32 65535, void ()* @_GLOBAL__sub_I_29.cpp, i8* null }]

declare void @_ZNSt8ios_base4InitC1Ev(%"class.std::ios_base::Init"* nonnull align 1 dereferenceable(1)) unnamed_addr #0

; Function Attrs: nounwind
declare void @_ZNSt8ios_base4InitD1Ev(%"class.std::ios_base::Init"* nonnull align 1 dereferenceable(1)) unnamed_addr #1

; Function Attrs: nofree nounwind
declare i32 @__cxa_atexit(void (i8*)*, i8*, i8*) local_unnamed_addr #2

; Function Attrs: mustprogress norecurse sspstrong uwtable
define dso_local i32 @main() local_unnamed_addr #3 {
  %1 = alloca i32, align 4
  %2 = alloca [50 x i32], align 16
  %3 = bitcast i32* %1 to i8*
  call void @llvm.lifetime.start.p0i8(i64 4, i8* nonnull %3) #8
  %4 = bitcast [50 x i32]* %2 to i8*
  call void @llvm.lifetime.start.p0i8(i64 200, i8* nonnull %4) #8
  call void @llvm.memset.p0i8.i64(i8* noundef nonnull align 16 dereferenceable(200) %4, i8 0, i64 200, i1 false)
  %5 = getelementptr inbounds [50 x i32], [50 x i32]* %2, i64 0, i64 0
  store i32 1, i32* %5, align 16, !tbaa !5
  %6 = call nonnull align 8 dereferenceable(16) %"class.std::basic_istream"* @_ZNSirsERi(%"class.std::basic_istream"* nonnull align 8 dereferenceable(16) @_ZSt3cin, i32* nonnull align 4 dereferenceable(4) %1)
  %7 = load i32, i32* %1, align 4, !tbaa !5
  %8 = icmp slt i32 %7, 1
  br i1 %8, label %14, label %9

9:                                                ; preds = %0, %9
  %10 = phi i32 [ %11, %9 ], [ 1, %0 ]
  call void @_Z8MultiplyPi(i32* nonnull %5)
  %11 = add nuw nsw i32 %10, 1
  %12 = load i32, i32* %1, align 4, !tbaa !5
  %13 = icmp slt i32 %10, %12
  br i1 %13, label %9, label %14, !llvm.loop !9

14:                                               ; preds = %9, %0
  br label %15

15:                                               ; preds = %14, %15
  %16 = phi i64 [ %20, %15 ], [ 49, %14 ]
  %17 = getelementptr inbounds [50 x i32], [50 x i32]* %2, i64 0, i64 %16
  %18 = load i32, i32* %17, align 4, !tbaa !5
  %19 = icmp eq i32 %18, 0
  %20 = add i64 %16, -1
  br i1 %19, label %15, label %21, !llvm.loop !11

21:                                               ; preds = %15
  %22 = trunc i64 %16 to i32
  %23 = icmp sgt i32 %22, -1
  br i1 %23, label %24, label %33

24:                                               ; preds = %21
  %25 = and i64 %16, 4294967295
  br label %26

26:                                               ; preds = %24, %26
  %27 = phi i64 [ %25, %24 ], [ %32, %26 ]
  %28 = getelementptr inbounds [50 x i32], [50 x i32]* %2, i64 0, i64 %27
  %29 = load i32, i32* %28, align 4, !tbaa !5
  %30 = call nonnull align 8 dereferenceable(8) %"class.std::basic_ostream"* @_ZNSolsEi(%"class.std::basic_ostream"* nonnull align 8 dereferenceable(8) @_ZSt4cout, i32 %29)
  %31 = icmp sgt i64 %27, 0
  %32 = add nsw i64 %27, -1
  br i1 %31, label %26, label %33, !llvm.loop !12

33:                                               ; preds = %26, %21
  call void @llvm.lifetime.end.p0i8(i64 200, i8* nonnull %4) #8
  call void @llvm.lifetime.end.p0i8(i64 4, i8* nonnull %3) #8
  ret i32 0
}

; Function Attrs: argmemonly mustprogress nofree nosync nounwind willreturn
declare void @llvm.lifetime.start.p0i8(i64 immarg, i8* nocapture) #4

; Function Attrs: argmemonly mustprogress nofree nounwind willreturn writeonly
declare void @llvm.memset.p0i8.i64(i8* nocapture writeonly, i8, i64, i1 immarg) #5

declare nonnull align 8 dereferenceable(16) %"class.std::basic_istream"* @_ZNSirsERi(%"class.std::basic_istream"* nonnull align 8 dereferenceable(16), i32* nonnull align 4 dereferenceable(4)) local_unnamed_addr #0

; Function Attrs: mustprogress nofree norecurse nosync nounwind sspstrong uwtable
define dso_local void @_Z8MultiplyPi(i32* nocapture %0) local_unnamed_addr #6 {
  %2 = bitcast i32* %0 to <4 x i32>*
  %3 = load <4 x i32>, <4 x i32>* %2, align 4, !tbaa !5
  %4 = shl nsw <4 x i32> %3, <i32 1, i32 1, i32 1, i32 1>
  %5 = bitcast i32* %0 to <4 x i32>*
  store <4 x i32> %4, <4 x i32>* %5, align 4, !tbaa !5
  %6 = getelementptr inbounds i32, i32* %0, i64 4
  %7 = bitcast i32* %6 to <4 x i32>*
  %8 = load <4 x i32>, <4 x i32>* %7, align 4, !tbaa !5
  %9 = shl nsw <4 x i32> %8, <i32 1, i32 1, i32 1, i32 1>
  %10 = bitcast i32* %6 to <4 x i32>*
  store <4 x i32> %9, <4 x i32>* %10, align 4, !tbaa !5
  %11 = getelementptr inbounds i32, i32* %0, i64 8
  %12 = bitcast i32* %11 to <4 x i32>*
  %13 = load <4 x i32>, <4 x i32>* %12, align 4, !tbaa !5
  %14 = shl nsw <4 x i32> %13, <i32 1, i32 1, i32 1, i32 1>
  %15 = bitcast i32* %11 to <4 x i32>*
  store <4 x i32> %14, <4 x i32>* %15, align 4, !tbaa !5
  %16 = getelementptr inbounds i32, i32* %0, i64 12
  %17 = bitcast i32* %16 to <4 x i32>*
  %18 = load <4 x i32>, <4 x i32>* %17, align 4, !tbaa !5
  %19 = shl nsw <4 x i32> %18, <i32 1, i32 1, i32 1, i32 1>
  %20 = bitcast i32* %16 to <4 x i32>*
  store <4 x i32> %19, <4 x i32>* %20, align 4, !tbaa !5
  %21 = getelementptr inbounds i32, i32* %0, i64 16
  %22 = bitcast i32* %21 to <4 x i32>*
  %23 = load <4 x i32>, <4 x i32>* %22, align 4, !tbaa !5
  %24 = shl nsw <4 x i32> %23, <i32 1, i32 1, i32 1, i32 1>
  %25 = bitcast i32* %21 to <4 x i32>*
  store <4 x i32> %24, <4 x i32>* %25, align 4, !tbaa !5
  %26 = getelementptr inbounds i32, i32* %0, i64 20
  %27 = bitcast i32* %26 to <4 x i32>*
  %28 = load <4 x i32>, <4 x i32>* %27, align 4, !tbaa !5
  %29 = shl nsw <4 x i32> %28, <i32 1, i32 1, i32 1, i32 1>
  %30 = bitcast i32* %26 to <4 x i32>*
  store <4 x i32> %29, <4 x i32>* %30, align 4, !tbaa !5
  %31 = getelementptr inbounds i32, i32* %0, i64 24
  %32 = bitcast i32* %31 to <4 x i32>*
  %33 = load <4 x i32>, <4 x i32>* %32, align 4, !tbaa !5
  %34 = shl nsw <4 x i32> %33, <i32 1, i32 1, i32 1, i32 1>
  %35 = bitcast i32* %31 to <4 x i32>*
  store <4 x i32> %34, <4 x i32>* %35, align 4, !tbaa !5
  %36 = getelementptr inbounds i32, i32* %0, i64 28
  %37 = bitcast i32* %36 to <4 x i32>*
  %38 = load <4 x i32>, <4 x i32>* %37, align 4, !tbaa !5
  %39 = shl nsw <4 x i32> %38, <i32 1, i32 1, i32 1, i32 1>
  %40 = bitcast i32* %36 to <4 x i32>*
  store <4 x i32> %39, <4 x i32>* %40, align 4, !tbaa !5
  %41 = getelementptr inbounds i32, i32* %0, i64 32
  %42 = bitcast i32* %41 to <4 x i32>*
  %43 = load <4 x i32>, <4 x i32>* %42, align 4, !tbaa !5
  %44 = shl nsw <4 x i32> %43, <i32 1, i32 1, i32 1, i32 1>
  %45 = bitcast i32* %41 to <4 x i32>*
  store <4 x i32> %44, <4 x i32>* %45, align 4, !tbaa !5
  %46 = getelementptr inbounds i32, i32* %0, i64 36
  %47 = bitcast i32* %46 to <4 x i32>*
  %48 = load <4 x i32>, <4 x i32>* %47, align 4, !tbaa !5
  %49 = shl nsw <4 x i32> %48, <i32 1, i32 1, i32 1, i32 1>
  %50 = bitcast i32* %46 to <4 x i32>*
  store <4 x i32> %49, <4 x i32>* %50, align 4, !tbaa !5
  %51 = getelementptr inbounds i32, i32* %0, i64 40
  %52 = bitcast i32* %51 to <4 x i32>*
  %53 = load <4 x i32>, <4 x i32>* %52, align 4, !tbaa !5
  %54 = shl nsw <4 x i32> %53, <i32 1, i32 1, i32 1, i32 1>
  %55 = bitcast i32* %51 to <4 x i32>*
  store <4 x i32> %54, <4 x i32>* %55, align 4, !tbaa !5
  %56 = getelementptr inbounds i32, i32* %0, i64 44
  %57 = bitcast i32* %56 to <4 x i32>*
  %58 = load <4 x i32>, <4 x i32>* %57, align 4, !tbaa !5
  %59 = shl nsw <4 x i32> %58, <i32 1, i32 1, i32 1, i32 1>
  %60 = bitcast i32* %56 to <4 x i32>*
  store <4 x i32> %59, <4 x i32>* %60, align 4, !tbaa !5
  %61 = getelementptr inbounds i32, i32* %0, i64 48
  %62 = load i32, i32* %61, align 4, !tbaa !5
  %63 = shl nsw i32 %62, 1
  store i32 %63, i32* %61, align 4, !tbaa !5
  %64 = getelementptr inbounds i32, i32* %0, i64 49
  %65 = load i32, i32* %64, align 4, !tbaa !5
  %66 = shl nsw i32 %65, 1
  store i32 %66, i32* %64, align 4, !tbaa !5
  br label %67

67:                                               ; preds = %1, %81
  %68 = phi i64 [ 0, %1 ], [ %82, %81 ]
  %69 = getelementptr inbounds i32, i32* %0, i64 %68
  %70 = load i32, i32* %69, align 4, !tbaa !5
  %71 = icmp sgt i32 %70, 9
  br i1 %71, label %74, label %72

72:                                               ; preds = %67
  %73 = add nuw nsw i64 %68, 1
  br label %81

74:                                               ; preds = %67
  %75 = udiv i32 %70, 10
  %76 = add nuw nsw i64 %68, 1
  %77 = getelementptr inbounds i32, i32* %0, i64 %76
  %78 = load i32, i32* %77, align 4, !tbaa !5
  %79 = add nsw i32 %78, %75
  store i32 %79, i32* %77, align 4, !tbaa !5
  %80 = urem i32 %70, 10
  store i32 %80, i32* %69, align 4, !tbaa !5
  br label %81

81:                                               ; preds = %72, %74
  %82 = phi i64 [ %73, %72 ], [ %76, %74 ]
  %83 = icmp eq i64 %82, 50
  br i1 %83, label %84, label %67, !llvm.loop !13

84:                                               ; preds = %81
  ret void
}

declare nonnull align 8 dereferenceable(8) %"class.std::basic_ostream"* @_ZNSolsEi(%"class.std::basic_ostream"* nonnull align 8 dereferenceable(8), i32) local_unnamed_addr #0

; Function Attrs: argmemonly mustprogress nofree nosync nounwind willreturn
declare void @llvm.lifetime.end.p0i8(i64 immarg, i8* nocapture) #4

; Function Attrs: sspstrong uwtable
define internal void @_GLOBAL__sub_I_29.cpp() #7 section ".text.startup" {
  tail call void @_ZNSt8ios_base4InitC1Ev(%"class.std::ios_base::Init"* nonnull align 1 dereferenceable(1) @_ZStL8__ioinit)
  %1 = tail call i32 @__cxa_atexit(void (i8*)* bitcast (void (%"class.std::ios_base::Init"*)* @_ZNSt8ios_base4InitD1Ev to void (i8*)*), i8* getelementptr inbounds (%"class.std::ios_base::Init", %"class.std::ios_base::Init"* @_ZStL8__ioinit, i64 0, i32 0), i8* nonnull @__dso_handle) #8
  ret void
}


!llvm.module.flags = !{!0, !1, !2, !3}
!llvm.ident = !{!4}

!0 = !{i32 1, !"wchar_size", i32 4}
!1 = !{i32 7, !"PIC Level", i32 2}
!2 = !{i32 7, !"PIE Level", i32 2}
!3 = !{i32 7, !"uwtable", i32 1}
!4 = !{!"clang version 13.0.0"}
!5 = !{!6, !6, i64 0}
!6 = !{!"int", !7, i64 0}
!7 = !{!"omnipotent char", !8, i64 0}
!8 = !{!"Simple C++ TBAA"}
!9 = distinct !{!9, !10}
!10 = !{!"llvm.loop.mustprogress"}
!11 = distinct !{!11, !10}
!12 = distinct !{!12, !10}
!13 = distinct !{!13, !10}
